target datalayout = "e-m:e-p270:32:32-p271:32:32-p272:64:64-i64:64-i128:128-f80:128-n8:16:32:64-S128"
target triple = "x86_64-pc-linux-gnu"

%struct._type_param = type { i32, %union.anon.30, i32, i32, i32, i32 }
%union.anon.30 = type { %struct.anon.31 }
%struct.anon.31 = type { ptr, ptr, ptr }
%struct.anon.32 = type { ptr, ptr }
%struct.anon.33 = type { ptr, ptr }

; Function Attrs: nounwind uwtable
define internal i32 @astfold_type_param(ptr noundef %0, ptr noundef %1, ptr noundef %2) #0 {
  %4 = alloca i32, align 4
  %5 = alloca ptr, align 8
  %6 = alloca ptr, align 8
  %7 = alloca ptr, align 8
  store ptr %0, ptr %5, align 8, !tbaa !52
  store ptr %1, ptr %6, align 8, !tbaa !9
  store ptr %2, ptr %7, align 8, !tbaa !32
  %8 = load ptr, ptr %5, align 8, !tbaa !52
  %9 = getelementptr inbounds nuw %struct._type_param, ptr %8, i32 0, i32 0
  %10 = load i32, ptr %9, align 8, !tbaa !113
  switch i32 %10, label %78 [
    i32 1, label %11
    i32 2, label %44
    i32 3, label %61
  ]

11:                                               ; preds = %3
  %12 = load ptr, ptr %5, align 8, !tbaa !52
  %13 = getelementptr inbounds nuw %struct._type_param, ptr %12, i32 0, i32 1
  %14 = getelementptr inbounds nuw %struct.anon.31, ptr %13, i32 0, i32 1
  %15 = load ptr, ptr %14, align 8, !tbaa !35
  %16 = icmp ne ptr %15, null
  br i1 %16, label %17, label %27

17:                                               ; preds = %11
  %18 = load ptr, ptr %5, align 8, !tbaa !52
  %19 = getelementptr inbounds nuw %struct._type_param, ptr %18, i32 0, i32 1
  %20 = getelementptr inbounds nuw %struct.anon.31, ptr %19, i32 0, i32 1
  %21 = load ptr, ptr %20, align 8, !tbaa !35
  %22 = load ptr, ptr %6, align 8, !tbaa !9
  %23 = load ptr, ptr %7, align 8, !tbaa !32
  %24 = call i32 @astfold_expr(ptr noundef %21, ptr noundef %22, ptr noundef %23)
  %25 = icmp ne i32 %24, 0
  br i1 %25, label %27, label %26

26:                                               ; preds = %17
  store i32 0, ptr %4, align 4
  br label %79

27:                                               ; preds = %17, %11
  %28 = load ptr, ptr %5, align 8, !tbaa !52
  %29 = getelementptr inbounds nuw %struct._type_param, ptr %28, i32 0, i32 1
  %30 = getelementptr inbounds nuw %struct.anon.31, ptr %29, i32 0, i32 2
  %31 = load ptr, ptr %30, align 8, !tbaa !35
  %32 = icmp ne ptr %31, null
  br i1 %32, label %33, label %43

33:                                               ; preds = %27
  %34 = load ptr, ptr %5, align 8, !tbaa !52
  %35 = getelementptr inbounds nuw %struct._type_param, ptr %34, i32 0, i32 1
  %36 = getelementptr inbounds nuw %struct.anon.31, ptr %35, i32 0, i32 2
  %37 = load ptr, ptr %36, align 8, !tbaa !35
  %38 = load ptr, ptr %6, align 8, !tbaa !9
  %39 = load ptr, ptr %7, align 8, !tbaa !32
  %40 = call i32 @astfold_expr(ptr noundef %37, ptr noundef %38, ptr noundef %39)
  %41 = icmp ne i32 %40, 0
  br i1 %41, label %43, label %42

42:                                               ; preds = %33
  store i32 0, ptr %4, align 4
  br label %79

43:                                               ; preds = %33, %27
  br label %78

44:                                               ; preds = %3
  %45 = load ptr, ptr %5, align 8, !tbaa !52
  %46 = getelementptr inbounds nuw %struct._type_param, ptr %45, i32 0, i32 1
  %47 = getelementptr inbounds nuw %struct.anon.32, ptr %46, i32 0, i32 1
  %48 = load ptr, ptr %47, align 8, !tbaa !35
  %49 = icmp ne ptr %48, null
  br i1 %49, label %50, label %60

50:                                               ; preds = %44
  %51 = load ptr, ptr %5, align 8, !tbaa !52
  %52 = getelementptr inbounds nuw %struct._type_param, ptr %51, i32 0, i32 1
  %53 = getelementptr inbounds nuw %struct.anon.32, ptr %52, i32 0, i32 1
  %54 = load ptr, ptr %53, align 8, !tbaa !35
  %55 = load ptr, ptr %6, align 8, !tbaa !9
  %56 = load ptr, ptr %7, align 8, !tbaa !32
  %57 = call i32 @astfold_expr(ptr noundef %54, ptr noundef %55, ptr noundef %56)
  %58 = icmp ne i32 %57, 0
  br i1 %58, label %60, label %59

59:                                               ; preds = %50
  store i32 0, ptr %4, align 4
  br label %79

60:                                               ; preds = %50, %44
  br label %78

61:                                               ; preds = %3
  %62 = load ptr, ptr %5, align 8, !tbaa !52
  %63 = getelementptr inbounds nuw %struct._type_param, ptr %62, i32 0, i32 1
  %64 = getelementptr inbounds nuw %struct.anon.33, ptr %63, i32 0, i32 1
  %65 = load ptr, ptr %64, align 8, !tbaa !35
  %66 = icmp ne ptr %65, null
  br i1 %66, label %67, label %77

67:                                               ; preds = %61
  %68 = load ptr, ptr %5, align 8, !tbaa !52
  %69 = getelementptr inbounds nuw %struct._type_param, ptr %68, i32 0, i32 1
  %70 = getelementptr inbounds nuw %struct.anon.33, ptr %69, i32 0, i32 1
  %71 = load ptr, ptr %70, align 8, !tbaa !35
  %72 = load ptr, ptr %6, align 8, !tbaa !9
  %73 = load ptr, ptr %7, align 8, !tbaa !32
  %74 = call i32 @astfold_expr(ptr noundef %71, ptr noundef %72, ptr noundef %73)
  %75 = icmp ne i32 %74, 0
  br i1 %75, label %77, label %76

76:                                               ; preds = %67
  store i32 0, ptr %4, align 4
  br label %79

77:                                               ; preds = %67, %61
  br label %78

78:                                               ; preds = %3, %77, %60, %43
  store i32 1, ptr %4, align 4
  br label %79

79:                                               ; preds = %78, %76, %59, %42, %26
  %80 = load i32, ptr %4, align 4
  ret i32 %80
}