; Function Attrs: nounwind uwtable
define internal fastcc range(i32 0, 2) i32 @astfold_type_param(ptr noundef nonnull readonly captures(none) %0, ptr noundef %1, ptr noundef nonnull captures(none) %2) unnamed_addr #0 {
  %4 = load i32, ptr %0, align 8, !tbaa !124
  switch i32 %4, label %25 [
    i32 1, label %5
    i32 2, label %15
    i32 3, label %20
  ]

5:                                                ; preds = %3
  %6 = getelementptr inbounds nuw i8, ptr %0, i64 16
  %7 = load ptr, ptr %6, align 8, !tbaa !28
  %.not24 = icmp eq ptr %7, null
  br i1 %.not24, label %10, label %8

8:                                                ; preds = %5
  %9 = tail call fastcc i32 @astfold_expr(ptr noundef nonnull %7, ptr noundef %1, ptr noundef %2)
  %.not25 = icmp eq i32 %9, 0
  br i1 %.not25, label %26, label %10

10:                                               ; preds = %8, %5
  %11 = getelementptr inbounds nuw i8, ptr %0, i64 24
  %12 = load ptr, ptr %11, align 8, !tbaa !28
  %.not26 = icmp eq ptr %12, null
  br i1 %.not26, label %25, label %13

13:                                               ; preds = %10
  %14 = tail call fastcc i32 @astfold_expr(ptr noundef nonnull %12, ptr noundef %1, ptr noundef %2)
  %.not27 = icmp eq i32 %14, 0
  br i1 %.not27, label %26, label %25

15:                                               ; preds = %3
  %16 = getelementptr inbounds nuw i8, ptr %0, i64 16
  %17 = load ptr, ptr %16, align 8, !tbaa !28
  %.not22 = icmp eq ptr %17, null
  br i1 %.not22, label %25, label %18

18:                                               ; preds = %15
  %19 = tail call fastcc i32 @astfold_expr(ptr noundef nonnull %17, ptr noundef %1, ptr noundef %2)
  %.not23 = icmp eq i32 %19, 0
  br i1 %.not23, label %26, label %25

20:                                               ; preds = %3
  %21 = getelementptr inbounds nuw i8, ptr %0, i64 16
  %22 = load ptr, ptr %21, align 8, !tbaa !28
  %.not = icmp eq ptr %22, null
  br i1 %.not, label %25, label %23

23:                                               ; preds = %20
  %24 = tail call fastcc i32 @astfold_expr(ptr noundef nonnull %22, ptr noundef %1, ptr noundef %2)
  %.not21 = icmp eq i32 %24, 0
  br i1 %.not21, label %26, label %25

25:                                               ; preds = %20, %23, %15, %18, %10, %13, %3
  br label %26

26:                                               ; preds = %23, %18, %13, %8, %25
  %.0 = phi i32 [ 1, %25 ], [ 0, %8 ], [ 0, %13 ], [ 0, %18 ], [ 0, %23 ]
  ret i32 %.0
}